target datalayout = "e-m:e-p270:32:32-p271:32:32-p272:64:64-i64:64-i128:128-f80:128-n8:16:32:64-S128"
target triple = "x86_64-pc-linux-gnu"

%"struct.rocksdb::Unsigned128" = type { i64, i64 }

; Function Attrs: inlinehint mustprogress nounwind uwtable
define linkonce_odr void @_ZN7rocksdb11Unsigned128C2Emm(ptr noundef nonnull align 8 dereferenceable(16) %0, i64 noundef %1, i64 noundef %2) unnamed_addr #3 comdat align 2 {
  %4 = alloca ptr, align 8
  %5 = alloca i64, align 8
  %6 = alloca i64, align 8
  store ptr %0, ptr %4, align 8, !tbaa !34
  store i64 %1, ptr %5, align 8, !tbaa !11
  store i64 %2, ptr %6, align 8, !tbaa !11
  %7 = load ptr, ptr %4, align 8
  %8 = load i64, ptr %5, align 8, !tbaa !11
  %9 = getelementptr inbounds nuw %"struct.rocksdb::Unsigned128", ptr %7, i32 0, i32 0
  store i64 %8, ptr %9, align 8, !tbaa !36
  %10 = load i64, ptr %6, align 8, !tbaa !11
  %11 = getelementptr inbounds nuw %"struct.rocksdb::Unsigned128", ptr %7, i32 0, i32 1
  store i64 %10, ptr %11, align 8, !tbaa !38
  ret void
}

; Function Attrs: inlinehint mustprogress nounwind uwtable
define linkonce_odr noundef i32 @_ZN7rocksdb11Lower32of64Em(i64 noundef %0) #3 comdat {
  %2 = alloca i64, align 8
  store i64 %0, ptr %2, align 8, !tbaa !11
  %3 = load i64, ptr %2, align 8, !tbaa !11
  %4 = trunc i64 %3 to i32
  ret i32 %4
}

; Function Attrs: inlinehint mustprogress nounwind uwtable
define linkonce_odr noundef i64 @_ZN7rocksdb15EndianSwapValueImEET_S1_(i64 noundef %0) #3 comdat {
  %2 = alloca i64, align 8
  store i64 %0, ptr %2, align 8, !tbaa !11
  %3 = load i64, ptr %2, align 8, !tbaa !11
  %4 = call i64 @llvm.bswap.i64(i64 %3)
  ret i64 %4
}

; Function Attrs: inlinehint mustprogress nounwind uwtable
define linkonce_odr noundef i64 @_ZN7rocksdb12Upper64of128ENS_11Unsigned128E(i64 %0, i64 %1) #3 comdat {
  %3 = alloca %"struct.rocksdb::Unsigned128", align 8
  %4 = getelementptr inbounds nuw { i64, i64 }, ptr %3, i32 0, i32 0
  store i64 %0, ptr %4, align 8
  %5 = getelementptr inbounds nuw { i64, i64 }, ptr %3, i32 0, i32 1
  store i64 %1, ptr %5, align 8
  %6 = getelementptr inbounds nuw %"struct.rocksdb::Unsigned128", ptr %3, i32 0, i32 1
  %7 = load i64, ptr %6, align 8, !tbaa !38
  ret i64 %7
}

; Function Attrs: inlinehint mustprogress uwtable
define linkonce_odr { i64, i64 } @_ZN7rocksdb15Multiply64to128Emm(i64 noundef %0, i64 noundef %1) #0 comdat {
  %3 = alloca %"struct.rocksdb::Unsigned128", align 8
  %4 = alloca i64, align 8
  %5 = alloca i64, align 8
  %6 = alloca i64, align 8
  %7 = alloca i64, align 8
  %8 = alloca i64, align 8
  store i64 %0, ptr %4, align 8, !tbaa !11
  store i64 %1, ptr %5, align 8, !tbaa !11
  call void @llvm.lifetime.start.p0(i64 8, ptr %6) #21
  %9 = load i64, ptr %5, align 8, !tbaa !11
  %10 = and i64 %9, 4294967295
  %11 = load i64, ptr %4, align 8, !tbaa !11
  %12 = and i64 %11, 4294967295
  %13 = mul i64 %10, %12
  store i64 %13, ptr %6, align 8, !tbaa !11
  call void @llvm.lifetime.start.p0(i64 8, ptr %7) #21
  %14 = load i64, ptr %6, align 8, !tbaa !11
  %15 = and i64 %14, 4294967295
  store i64 %15, ptr %7, align 8, !tbaa !11
  %16 = load i64, ptr %6, align 8, !tbaa !11
  %17 = lshr i64 %16, 32
  store i64 %17, ptr %6, align 8, !tbaa !11
  %18 = load i64, ptr %5, align 8, !tbaa !11
  %19 = and i64 %18, 4294967295
  %20 = load i64, ptr %4, align 8, !tbaa !11
  %21 = lshr i64 %20, 32
  %22 = mul i64 %19, %21
  %23 = load i64, ptr %6, align 8, !tbaa !11
  %24 = add i64 %23, %22
  store i64 %24, ptr %6, align 8, !tbaa !11
  call void @llvm.lifetime.start.p0(i64 8, ptr %8) #21
  %25 = load i64, ptr %5, align 8, !tbaa !11
  %26 = lshr i64 %25, 32
  %27 = load i64, ptr %4, align 8, !tbaa !11
  %28 = and i64 %27, 4294967295
  %29 = mul i64 %26, %28
  store i64 %29, ptr %8, align 8, !tbaa !11
  %30 = load i64, ptr %8, align 8, !tbaa !11
  %31 = and i64 %30, 4294967295
  %32 = load i64, ptr %6, align 8, !tbaa !11
  %33 = add i64 %32, %31
  store i64 %33, ptr %6, align 8, !tbaa !11
  %34 = load i64, ptr %6, align 8, !tbaa !11
  %35 = shl i64 %34, 32
  %36 = load i64, ptr %7, align 8, !tbaa !11
  %37 = or i64 %36, %35
  store i64 %37, ptr %7, align 8, !tbaa !11
  %38 = load i64, ptr %6, align 8, !tbaa !11
  %39 = lshr i64 %38, 32
  store i64 %39, ptr %6, align 8, !tbaa !11
  %40 = load i64, ptr %8, align 8, !tbaa !11
  %41 = lshr i64 %40, 32
  %42 = load i64, ptr %6, align 8, !tbaa !11
  %43 = add i64 %42, %41
  store i64 %43, ptr %6, align 8, !tbaa !11
  %44 = load i64, ptr %5, align 8, !tbaa !11
  %45 = lshr i64 %44, 32
  %46 = load i64, ptr %4, align 8, !tbaa !11
  %47 = lshr i64 %46, 32
  %48 = mul i64 %45, %47
  %49 = load i64, ptr %6, align 8, !tbaa !11
  %50 = add i64 %49, %48
  store i64 %50, ptr %6, align 8, !tbaa !11
  %51 = load i64, ptr %7, align 8, !tbaa !11
  %52 = load i64, ptr %6, align 8, !tbaa !11
  call void @_ZN7rocksdb11Unsigned128C2Emm(ptr noundef nonnull align 8 dereferenceable(16) %3, i64 noundef %51, i64 noundef %52)
  call void @llvm.lifetime.end.p0(i64 8, ptr %8) #21
  call void @llvm.lifetime.end.p0(i64 8, ptr %7) #21
  call void @llvm.lifetime.end.p0(i64 8, ptr %6) #21
  %53 = load { i64, i64 }, ptr %3, align 8
  ret { i64, i64 } %53
}

; Function Attrs: inlinehint mustprogress nounwind uwtable
define internal noundef i64 @_ZN7rocksdb12_GLOBAL__N_116XXH3_unavalancheEm(i64 noundef %0) #3 {
  %2 = alloca i64, align 8
  store i64 %0, ptr %2, align 8, !tbaa !11
  %3 = load i64, ptr %2, align 8, !tbaa !11
  %4 = lshr i64 %3, 32
  %5 = load i64, ptr %2, align 8, !tbaa !11
  %6 = xor i64 %5, %4
  store i64 %6, ptr %2, align 8, !tbaa !11
  %7 = load i64, ptr %2, align 8, !tbaa !11
  %8 = mul i64 %7, 637979407623780425
  store i64 %8, ptr %2, align 8, !tbaa !11
  %9 = load i64, ptr %2, align 8, !tbaa !11
  %10 = lshr i64 %9, 37
  %11 = load i64, ptr %2, align 8, !tbaa !11
  %12 = xor i64 %11, %10
  store i64 %12, ptr %2, align 8, !tbaa !11
  %13 = load i64, ptr %2, align 8, !tbaa !11
  ret i64 %13
}

; Function Attrs: mustprogress uwtable
define void @_ZN7rocksdb19BijectiveUnhash2x64EmmmPmS0_(i64 noundef %0, i64 noundef %1, i64 noundef %2, ptr noundef %3, ptr noundef %4) #1 {
  %6 = alloca i64, align 8
  %7 = alloca i64, align 8
  %8 = alloca i64, align 8
  %9 = alloca ptr, align 8
  %10 = alloca ptr, align 8
  %11 = alloca i64, align 8
  %12 = alloca i64, align 8
  %13 = alloca i64, align 8
  %14 = alloca i64, align 8
  %15 = alloca %"struct.rocksdb::Unsigned128", align 8
  %16 = alloca %"struct.rocksdb::Unsigned128", align 8
  %17 = alloca i32, align 4
  store i64 %0, ptr %6, align 8, !tbaa !11
  store i64 %1, ptr %7, align 8, !tbaa !11
  store i64 %2, ptr %8, align 8, !tbaa !11
  store ptr %3, ptr %9, align 8, !tbaa !39
  store ptr %4, ptr %10, align 8, !tbaa !39
  call void @llvm.lifetime.start.p0(i64 8, ptr %11) #21
  %18 = load i64, ptr %8, align 8, !tbaa !11
  %19 = sub i64 6455697860950631241, %18
  store i64 %19, ptr %11, align 8, !tbaa !11
  call void @llvm.lifetime.start.p0(i64 8, ptr %12) #21
  %20 = load i64, ptr %8, align 8, !tbaa !11
  %21 = add i64 -4466874330221494952, %20
  store i64 %21, ptr %12, align 8, !tbaa !11
  call void @llvm.lifetime.start.p0(i64 8, ptr %13) #21
  %22 = load i64, ptr %7, align 8, !tbaa !11
  %23 = call noundef i64 @_ZN7rocksdb12_GLOBAL__N_116XXH3_unavalancheEm(i64 noundef %22)
  store i64 %23, ptr %13, align 8, !tbaa !11
  call void @llvm.lifetime.start.p0(i64 8, ptr %14) #21
  %24 = load i64, ptr %6, align 8, !tbaa !11
  %25 = call noundef i64 @_ZN7rocksdb12_GLOBAL__N_116XXH3_unavalancheEm(i64 noundef %24)
  store i64 %25, ptr %14, align 8, !tbaa !11
  %26 = load i64, ptr %13, align 8, !tbaa !11
  %27 = mul i64 %26, 839798700976720815
  store i64 %27, ptr %13, align 8, !tbaa !11
  %28 = load i64, ptr %13, align 8, !tbaa !11
  %29 = call { i64, i64 } @_ZN7rocksdb15Multiply64to128Emm(i64 noundef %28, i64 noundef -4417276706812531889)
  %30 = getelementptr inbounds nuw { i64, i64 }, ptr %15, i32 0, i32 0
  %31 = extractvalue { i64, i64 } %29, 0
  store i64 %31, ptr %30, align 8
  %32 = getelementptr inbounds nuw { i64, i64 }, ptr %15, i32 0, i32 1
  %33 = extractvalue { i64, i64 } %29, 1
  store i64 %33, ptr %32, align 8
  %34 = getelementptr inbounds nuw { i64, i64 }, ptr %15, i32 0, i32 0
  %35 = load i64, ptr %34, align 8
  %36 = getelementptr inbounds nuw { i64, i64 }, ptr %15, i32 0, i32 1
  %37 = load i64, ptr %36, align 8
  %38 = call noundef i64 @_ZN7rocksdb12Upper64of128ENS_11Unsigned128E(i64 %35, i64 %37)
  %39 = load i64, ptr %14, align 8, !tbaa !11
  %40 = sub i64 %39, %38
  store i64 %40, ptr %14, align 8, !tbaa !11
  %41 = load i64, ptr %14, align 8, !tbaa !11
  %42 = mul i64 %41, 839798700976720815
  store i64 %42, ptr %14, align 8, !tbaa !11
  %43 = load i64, ptr %14, align 8, !tbaa !11
  %44 = call noundef i64 @_ZN7rocksdb15EndianSwapValueImEET_S1_(i64 noundef %43)
  %45 = load i64, ptr %13, align 8, !tbaa !11
  %46 = xor i64 %45, %44
  store i64 %46, ptr %13, align 8, !tbaa !11
  %47 = load i64, ptr %13, align 8, !tbaa !11
  %48 = sub i64 %47, 270215977642229760
  store i64 %48, ptr %13, align 8, !tbaa !11
  %49 = load i64, ptr %13, align 8, !tbaa !11
  %50 = mul i64 %49, 614540362697595703
  store i64 %50, ptr %13, align 8, !tbaa !11
  %51 = load i64, ptr %13, align 8, !tbaa !11
  %52 = call { i64, i64 } @_ZN7rocksdb15Multiply64to128Emm(i64 noundef %51, i64 noundef -7046029288634856825)
  %53 = getelementptr inbounds nuw { i64, i64 }, ptr %16, i32 0, i32 0
  %54 = extractvalue { i64, i64 } %52, 0
  store i64 %54, ptr %53, align 8
  %55 = getelementptr inbounds nuw { i64, i64 }, ptr %16, i32 0, i32 1
  %56 = extractvalue { i64, i64 } %52, 1
  store i64 %56, ptr %55, align 8
  %57 = getelementptr inbounds nuw { i64, i64 }, ptr %16, i32 0, i32 0
  %58 = load i64, ptr %57, align 8
  %59 = getelementptr inbounds nuw { i64, i64 }, ptr %16, i32 0, i32 1
  %60 = load i64, ptr %59, align 8
  %61 = call noundef i64 @_ZN7rocksdb12Upper64of128ENS_11Unsigned128E(i64 %58, i64 %60)
  %62 = load i64, ptr %14, align 8, !tbaa !11
  %63 = sub i64 %62, %61
  store i64 %63, ptr %14, align 8, !tbaa !11
  call void @llvm.lifetime.start.p0(i64 4, ptr %17) #21
  %64 = load i64, ptr %14, align 8, !tbaa !11
  %65 = call noundef i32 @_ZN7rocksdb11Lower32of64Em(i64 noundef %64)
  %66 = mul i32 %65, -1228329145
  store i32 %66, ptr %17, align 4, !tbaa !13
  %67 = load i32, ptr %17, align 4, !tbaa !13
  %68 = zext i32 %67 to i64
  %69 = load i64, ptr %14, align 8, !tbaa !11
  %70 = sub i64 %69, %68
  store i64 %70, ptr %14, align 8, !tbaa !11
  %71 = load i64, ptr %14, align 8, !tbaa !11
  %72 = and i64 %71, -4294967296
  %73 = load i32, ptr %17, align 4, !tbaa !13
  %74 = zext i32 %73 to i64
  %75 = mul i64 %74, 2246822518
  %76 = and i64 %75, -4294967296
  %77 = sub i64 %72, %76
  %78 = load i32, ptr %17, align 4, !tbaa !13
  %79 = zext i32 %78 to i64
  %80 = add i64 %77, %79
  store i64 %80, ptr %14, align 8, !tbaa !11
  %81 = load i64, ptr %12, align 8, !tbaa !11
  %82 = load i64, ptr %14, align 8, !tbaa !11
  %83 = xor i64 %82, %81
  store i64 %83, ptr %14, align 8, !tbaa !11
  %84 = load i64, ptr %14, align 8, !tbaa !11
  %85 = load i64, ptr %11, align 8, !tbaa !11
  %86 = xor i64 %84, %85
  %87 = load i64, ptr %13, align 8, !tbaa !11
  %88 = xor i64 %87, %86
  store i64 %88, ptr %13, align 8, !tbaa !11
  %89 = load i64, ptr %14, align 8, !tbaa !11
  %90 = load ptr, ptr %9, align 8, !tbaa !39
  store i64 %89, ptr %90, align 8, !tbaa !11
  %91 = load i64, ptr %13, align 8, !tbaa !11
  %92 = load ptr, ptr %10, align 8, !tbaa !39
  store i64 %91, ptr %92, align 8, !tbaa !11
  call void @llvm.lifetime.end.p0(i64 4, ptr %17) #21
  call void @llvm.lifetime.end.p0(i64 8, ptr %14) #21
  call void @llvm.lifetime.end.p0(i64 8, ptr %13) #21
  call void @llvm.lifetime.end.p0(i64 8, ptr %12) #21
  call void @llvm.lifetime.end.p0(i64 8, ptr %11) #21
  ret void
}