; Function Attrs: mustprogress nofree norecurse nosync nounwind willreturn memory(argmem: write) uwtable
define void @_ZN7rocksdb19BijectiveUnhash2x64EmmmPmS0_(i64 noundef %0, i64 noundef %1, i64 noundef %2, ptr noundef writeonly captures(none) initializes((0, 8)) %3, ptr noundef writeonly captures(none) initializes((0, 8)) %4) local_unnamed_addr #9 {
  %6 = sub i64 6455697860950631241, %2
  %7 = add i64 %2, -4466874330221494952
  %8 = lshr i64 %1, 32
  %9 = xor i64 %8, %1
  %10 = mul i64 %9, 637979407623780425
  %11 = lshr i64 %10, 37
  %12 = xor i64 %11, %10
  %13 = lshr i64 %0, 32
  %14 = xor i64 %13, %0
  %15 = mul i64 %14, 637979407623780425
  %16 = lshr i64 %15, 37
  %17 = xor i64 %16, %15
  %18 = mul i64 %12, 839798700976720815
  %19 = and i64 %18, 4294967295
  %20 = mul nuw nsw i64 %19, 668265295
  %21 = lshr i64 %20, 32
  %22 = lshr i64 %18, 32
  %23 = mul nuw nsw i64 %22, 668265295
  %24 = add nuw nsw i64 %21, %23
  %25 = mul nuw i64 %19, 3266489917
  %26 = and i64 %25, 4294967295
  %27 = add nuw nsw i64 %24, %26
  %28 = lshr i64 %27, 32
  %29 = lshr i64 %25, 32
  %.neg = mul i64 %22, -3266489917
  %.neg33 = add i64 %.neg, %17
  %30 = add nuw nsw i64 %29, %28
  %31 = sub i64 %.neg33, %30
  %32 = mul i64 %31, 839798700976720815
  %33 = tail call noundef i64 @llvm.bswap.i64(i64 %32)
  %34 = xor i64 %33, %18
  %35 = mul i64 %34, 614540362697595703
  %36 = add i64 %35, -1026820715040473088
  %37 = and i64 %35, 4294967295
  %38 = mul nuw i64 %37, 2246822535
  %39 = lshr i64 %38, 32
  %40 = lshr i64 %36, 32
  %41 = mul nuw i64 %40, 2246822535
  %42 = add nuw i64 %39, %41
  %43 = mul nuw i64 %37, 2654435761
  %44 = and i64 %43, 4294967295
  %45 = add nuw i64 %42, %44
  %46 = lshr i64 %45, 32
  %47 = lshr i64 %43, 32
  %.neg37 = mul i64 %40, -2654435761
  %.neg38 = add i64 %.neg37, %32
  %48 = add nuw nsw i64 %47, %46
  %49 = sub i64 %.neg38, %48
  %50 = mul i64 %49, 3066638151
  %51 = and i64 %50, 4294967295
  %52 = sub i64 %49, %51
  %53 = and i64 %52, -4294967296
  %54 = mul nuw i64 %51, 2246822518
  %55 = and i64 %54, -4294967296
  %56 = sub i64 %53, %55
  %57 = or disjoint i64 %56, %51
  %58 = xor i64 %57, %7
  %59 = xor i64 %36, %6
  %60 = xor i64 %59, %58
  store i64 %58, ptr %3, align 8, !tbaa !27
  store i64 %60, ptr %4, align 8, !tbaa !27
  ret void
}